target datalayout = "e-m:e-p270:32:32-p271:32:32-p272:64:64-i64:64-i128:128-f80:128-n8:16:32:64-S128"
target triple = "x86_64-pc-linux-gnu"

%"class.std::__cxx11::basic_string" = type { %"struct.std::__cxx11::basic_string<char>::_Alloc_hider", i64, %union.anon }
%"struct.std::__cxx11::basic_string<char>::_Alloc_hider" = type { ptr }
%union.anon = type { i64, [8 x i8] }
%"class.mu::ParserError" = type { %"class.std::__cxx11::basic_string", %"class.std::__cxx11::basic_string", %"class.std::__cxx11::basic_string", i32, i32, ptr }
%class.ParserTag = type { ptr, %"class.mu::ParserError", ptr, i8, i32 }

; Function Attrs: mustprogress uwtable
define linkonce_odr void @_ZN9ParserTagC2Ei(ptr noundef nonnull align 8 dereferenceable(136) %0, i32 noundef %1) unnamed_addr #6 comdat align 2 personality ptr @__gxx_personality_v0 {
  %3 = alloca ptr, align 8
  %4 = alloca i32, align 4
  %5 = alloca ptr, align 8
  %6 = alloca i1, align 1
  %7 = alloca ptr, align 8
  %8 = alloca i32, align 4
  %9 = alloca ptr, align 8
  %10 = alloca i1, align 1
  store ptr %0, ptr %3, align 8, !tbaa !35
  store i32 %1, ptr %4, align 4, !tbaa !48
  %11 = load ptr, ptr %3, align 8
  %12 = getelementptr inbounds nuw %class.ParserTag, ptr %11, i32 0, i32 0
  %13 = load i32, ptr %4, align 4, !tbaa !48
  %14 = icmp eq i32 %13, 0
  store i1 false, ptr %6, align 1
  store i1 false, ptr %10, align 1
  br i1 %14, label %15, label %18

15:                                               ; preds = %2
  %16 = call noalias noundef nonnull ptr @_Znwm(i64 noundef 600) #21
  store ptr %16, ptr %5, align 8
  store i1 true, ptr %6, align 1
  invoke void @_ZN2mu6ParserC1Ev(ptr noundef nonnull align 8 dereferenceable(596) %16)
          to label %17 unwind label %34

17:                                               ; preds = %15
  br label %27

18:                                               ; preds = %2
  %19 = load i32, ptr %4, align 4, !tbaa !48
  %20 = icmp eq i32 %19, 1
  br i1 %20, label %21, label %24

21:                                               ; preds = %18
  %22 = call noalias noundef nonnull ptr @_Znwm(i64 noundef 600) #21
  store ptr %22, ptr %9, align 8
  store i1 true, ptr %10, align 1
  invoke void @_ZN2mu9ParserIntC1Ev(ptr noundef nonnull align 8 dereferenceable(596) %22)
          to label %23 unwind label %42

23:                                               ; preds = %21
  br label %25

24:                                               ; preds = %18
  br label %25

25:                                               ; preds = %24, %23
  %26 = phi ptr [ %22, %23 ], [ null, %24 ]
  br label %27

27:                                               ; preds = %25, %17
  %28 = phi ptr [ %16, %17 ], [ %26, %25 ]
  store ptr %28, ptr %12, align 8, !tbaa !47
  %29 = getelementptr inbounds nuw %class.ParserTag, ptr %11, i32 0, i32 1
  call void @_ZN2mu11ParserErrorC1Ev(ptr noundef nonnull align 8 dereferenceable(112) %29)
  %30 = getelementptr inbounds nuw %class.ParserTag, ptr %11, i32 0, i32 2
  store ptr null, ptr %30, align 8, !tbaa !46
  %31 = getelementptr inbounds nuw %class.ParserTag, ptr %11, i32 0, i32 3
  store i8 0, ptr %31, align 8, !tbaa !39
  %32 = getelementptr inbounds nuw %class.ParserTag, ptr %11, i32 0, i32 4
  %33 = load i32, ptr %4, align 4, !tbaa !48
  store i32 %33, ptr %32, align 4, !tbaa !49
  ret void

34:                                               ; preds = %15
  %35 = landingpad { ptr, i32 }
          cleanup
  %36 = extractvalue { ptr, i32 } %35, 0
  store ptr %36, ptr %7, align 8
  %37 = extractvalue { ptr, i32 } %35, 1
  store i32 %37, ptr %8, align 4
  %38 = load i1, ptr %6, align 1
  br i1 %38, label %39, label %41

39:                                               ; preds = %34
  %40 = load ptr, ptr %5, align 8
  call void @_ZdlPv(ptr noundef %40) #20
  br label %41

41:                                               ; preds = %39, %34
  br label %50

42:                                               ; preds = %21
  %43 = landingpad { ptr, i32 }
          cleanup
  %44 = extractvalue { ptr, i32 } %43, 0
  store ptr %44, ptr %7, align 8
  %45 = extractvalue { ptr, i32 } %43, 1
  store i32 %45, ptr %8, align 4
  %46 = load i1, ptr %10, align 1
  br i1 %46, label %47, label %49

47:                                               ; preds = %42
  %48 = load ptr, ptr %9, align 8
  call void @_ZdlPv(ptr noundef %48) #20
  br label %49

49:                                               ; preds = %47, %42
  br label %50

50:                                               ; preds = %49, %41
  %51 = load ptr, ptr %7, align 8
  %52 = load i32, ptr %8, align 4
  %53 = insertvalue { ptr, i32 } poison, ptr %51, 0
  %54 = insertvalue { ptr, i32 } %53, i32 %52, 1
  resume { ptr, i32 } %54
}

; Function Attrs: mustprogress uwtable
define ptr @mupCreate(i32 noundef %0) #6 personality ptr @__gxx_personality_v0 {
  %2 = alloca ptr, align 8
  %3 = alloca i32, align 4
  %4 = alloca ptr, align 8
  %5 = alloca i32, align 4
  store i32 %0, ptr %3, align 4, !tbaa !48
  %6 = load i32, ptr %3, align 4, !tbaa !48
  switch i32 %6, label %21 [
    i32 0, label %7
    i32 1, label %14
  ]

7:                                                ; preds = %1
  %8 = call noalias noundef nonnull ptr @_Znwm(i64 noundef 136) #21
  invoke void @_ZN9ParserTagC2Ei(ptr noundef nonnull align 8 dereferenceable(136) %8, i32 noundef 0)
          to label %9 unwind label %10

9:                                                ; preds = %7
  store ptr %8, ptr %2, align 8
  br label %22

10:                                               ; preds = %7
  %11 = landingpad { ptr, i32 }
          cleanup
  %12 = extractvalue { ptr, i32 } %11, 0
  store ptr %12, ptr %4, align 8
  %13 = extractvalue { ptr, i32 } %11, 1
  store i32 %13, ptr %5, align 4
  call void @_ZdlPv(ptr noundef %8) #20
  br label %24

14:                                               ; preds = %1
  %15 = call noalias noundef nonnull ptr @_Znwm(i64 noundef 136) #21
  invoke void @_ZN9ParserTagC2Ei(ptr noundef nonnull align 8 dereferenceable(136) %15, i32 noundef 1)
          to label %16 unwind label %17

16:                                               ; preds = %14
  store ptr %15, ptr %2, align 8
  br label %22

17:                                               ; preds = %14
  %18 = landingpad { ptr, i32 }
          cleanup
  %19 = extractvalue { ptr, i32 } %18, 0
  store ptr %19, ptr %4, align 8
  %20 = extractvalue { ptr, i32 } %18, 1
  store i32 %20, ptr %5, align 4
  call void @_ZdlPv(ptr noundef %15) #20
  br label %24

21:                                               ; preds = %1
  store ptr null, ptr %2, align 8
  br label %22

22:                                               ; preds = %21, %16, %9
  %23 = load ptr, ptr %2, align 8
  ret ptr %23

24:                                               ; preds = %17, %10
  %25 = load ptr, ptr %4, align 8
  %26 = load i32, ptr %5, align 4
  %27 = insertvalue { ptr, i32 } poison, ptr %25, 0
  %28 = insertvalue { ptr, i32 } %27, i32 %26, 1
  resume { ptr, i32 } %28
}