; Function Attrs: mustprogress uwtable
define noundef ptr @mupCreate(i32 noundef %0) local_unnamed_addr #11 personality ptr @__gxx_personality_v0 {
  switch i32 %0, label %23 [
    i32 0, label %2
    i32 1, label %11
  ]

2:                                                ; preds = %1
  %3 = tail call noalias noundef nonnull dereferenceable(136) ptr @_Znwm(i64 noundef 136) #25
  %4 = invoke noalias noundef nonnull dereferenceable(600) ptr @_Znwm(i64 noundef 600) #25
          to label %.noexc unwind label %9

.noexc:                                           ; preds = %2
  invoke void @_ZN2mu6ParserC1Ev(ptr noundef nonnull align 8 dereferenceable(596) %4)
          to label %5 unwind label %7

5:                                                ; preds = %.noexc
  store ptr %4, ptr %3, align 8, !tbaa !4
  %6 = getelementptr inbounds nuw i8, ptr %3, i64 8
  invoke void @_ZN2mu11ParserErrorC1Ev(ptr noundef nonnull align 8 dereferenceable(112) %6)
          to label %.sink.split unwind label %9

7:                                                ; preds = %.noexc
  %8 = landingpad { ptr, i32 }
          cleanup
  tail call void @_ZdlPv(ptr noundef nonnull %4) #26
  br label %.body

9:                                                ; preds = %5, %2
  %10 = landingpad { ptr, i32 }
          cleanup
  br label %.body

11:                                               ; preds = %1
  %12 = tail call noalias noundef nonnull dereferenceable(136) ptr @_Znwm(i64 noundef 136) #25
  %13 = invoke noalias noundef nonnull dereferenceable(600) ptr @_Znwm(i64 noundef 600) #25
          to label %.noexc7 unwind label %18

.noexc7:                                          ; preds = %11
  invoke void @_ZN2mu9ParserIntC1Ev(ptr noundef nonnull align 8 dereferenceable(596) %13)
          to label %14 unwind label %16

14:                                               ; preds = %.noexc7
  store ptr %13, ptr %12, align 8, !tbaa !4
  %15 = getelementptr inbounds nuw i8, ptr %12, i64 8
  invoke void @_ZN2mu11ParserErrorC1Ev(ptr noundef nonnull align 8 dereferenceable(112) %15)
          to label %.sink.split unwind label %18

16:                                               ; preds = %.noexc7
  %17 = landingpad { ptr, i32 }
          cleanup
  tail call void @_ZdlPv(ptr noundef nonnull %13) #26
  br label %.body

18:                                               ; preds = %14, %11
  %19 = landingpad { ptr, i32 }
          cleanup
  br label %.body

.sink.split:                                      ; preds = %14, %5
  %.sink17 = phi ptr [ %3, %5 ], [ %12, %14 ]
  %20 = getelementptr inbounds nuw i8, ptr %.sink17, i64 120
  store ptr null, ptr %20, align 8, !tbaa !20
  %21 = getelementptr inbounds nuw i8, ptr %.sink17, i64 128
  store i8 0, ptr %21, align 8, !tbaa !19
  %22 = getelementptr inbounds nuw i8, ptr %.sink17, i64 132
  store i32 %0, ptr %22, align 4, !tbaa !21
  br label %23

23:                                               ; preds = %.sink.split, %1
  %.04 = phi ptr [ null, %1 ], [ %.sink17, %.sink.split ]
  ret ptr %.04

.body:                                            ; preds = %18, %16, %9, %7
  %.sink18 = phi ptr [ %3, %7 ], [ %3, %9 ], [ %12, %16 ], [ %12, %18 ]
  %.pn = phi { ptr, i32 } [ %8, %7 ], [ %10, %9 ], [ %17, %16 ], [ %19, %18 ]
  tail call void @_ZdlPv(ptr noundef nonnull %.sink18) #26
  resume { ptr, i32 } %.pn
}